; Function Attrs: mustprogress nofree norecurse nosync nounwind willreturn memory(none) uwtable
define dso_local range(i32 -1, 256) i32 @_PyUnicode_ToDigit(i32 noundef %0) local_unnamed_addr #0 {
  %2 = icmp ugt i32 %0, 1114111
  br i1 %2, label %gettyperecord.exit, label %3

3:                                                ; preds = %1
  %4 = lshr i32 %0, 6
  %5 = zext nneg i32 %4 to i64
  %6 = getelementptr [17408 x i16], ptr @index1, i64 0, i64 %5
  %7 = load i16, ptr %6, align 2, !tbaa !4
  %8 = zext i16 %7 to i32
  %9 = shl nuw nsw i32 %8, 6
  %10 = and i32 %0, 63
  %11 = or disjoint i32 %9, %10
  %12 = zext nneg i32 %11 to i64
  %13 = getelementptr [29312 x i16], ptr @index2, i64 0, i64 %12
  %14 = load i16, ptr %13, align 2, !tbaa !4
  %15 = zext i16 %14 to i64
  br label %gettyperecord.exit

gettyperecord.exit:                               ; preds = %1, %3
  %.0.i = phi i64 [ %15, %3 ], [ 0, %1 ]
  %16 = getelementptr [509 x %struct._PyUnicode_TypeRecord], ptr @_PyUnicode_TypeRecords, i64 0, i64 %.0.i
  %17 = getelementptr inbounds nuw i8, ptr %16, i64 14
  %18 = load i16, ptr %17, align 2, !tbaa !8
  %19 = and i16 %18, 4
  %.not = icmp eq i16 %19, 0
  br i1 %.not, label %24, label %20

20:                                               ; preds = %gettyperecord.exit
  %21 = getelementptr inbounds nuw i8, ptr %16, i64 13
  %22 = load i8, ptr %21, align 1, !tbaa !14
  %23 = zext i8 %22 to i32
  br label %24

24:                                               ; preds = %gettyperecord.exit, %20
  %25 = phi i32 [ %23, %20 ], [ -1, %gettyperecord.exit ]
  ret i32 %25
}